target datalayout = "e-m:e-p270:32:32-p271:32:32-p272:64:64-i64:64-i128:128-f80:128-n8:16:32:64-S128"
target triple = "x86_64-pc-linux-gnu"

%struct.H5HF_indirect_t = type { %struct.H5C_cache_entry_t, i64, ptr, ptr, ptr, i32, i64, i64, i32, i32, i32, i32, ptr, i8, i64, ptr, ptr }
%struct.H5C_cache_entry_t = type { ptr, i64, i64, ptr, i8, ptr, i8, i8, i8, i8, i32, i8, i8, i8, i8, i8, i32, ptr, i32, i32, i32, i32, i32, i8, i8, ptr, ptr, ptr, ptr, ptr, ptr, i8, i32, i8, i64, ptr, i64, i64, i32, i8, i32, i32, i8, ptr, ptr, ptr }
%struct.H5HF_hdr_t = type { %struct.H5C_cache_entry_t, i32, i32, i8, i8, i8, i8, %struct.H5HF_dtable_t, i64, i64, i32, i64, i64, %struct.H5O_pline_t, i64, i32, i64, i64, i64, i64, i64, i64, i64, i64, i64, i64, i64, i32, ptr, i64, i8, i8, i8, ptr, i32, ptr, %struct.H5HF_block_iter_t, ptr, i64, i8, i8, i64, i8, i8, i8, i8 }
%struct.H5HF_dtable_t = type { %struct.H5HF_dtable_cparam_t, i64, i32, i32, i32, i32, i32, i32, i32, i64, ptr, ptr, ptr, ptr }
%struct.H5HF_dtable_cparam_t = type { i32, i64, i64, i32, i32 }
%struct.H5O_pline_t = type { %struct.H5O_shared_t, i32, i64, i64, ptr }
%struct.H5O_shared_t = type { i32, ptr, i32, %union.anon }
%union.anon = type { %struct.H5O_mesg_loc_t }
%struct.H5O_mesg_loc_t = type { i32, i64 }
%struct.H5HF_block_iter_t = type { i8, ptr }

@H5HF_init_g = external global i8, align 1
@H5_libterm_g = external global i8, align 1
@.str.4 = private unnamed_addr constant [104 x i8] c"generated/home/dtcxzyw/WorkSpace/Projects/compilers/llvm-opt-benchmark/bench/hdf5/hdf5/src/H5HFiblock.c\00", align 1
@H5E_HEAP_g = external global i64, align 8
@__func__.H5HF__iblock_decr = private unnamed_addr constant [18 x i8] c"H5HF__iblock_decr\00", align 1
@H5E_CANTUNPIN_g = external global i64, align 8
@.str.6 = private unnamed_addr constant [44 x i8] c"unable to unpin fractal heap indirect block\00", align 1
@H5E_CANTFREE_g = external global i64, align 8
@.str.7 = private unnamed_addr constant [46 x i8] c"unable to destroy fractal heap indirect block\00", align 1
@__func__.H5HF__iblock_unpin = private unnamed_addr constant [19 x i8] c"H5HF__iblock_unpin\00", align 1

; Function Attrs: nounwind uwtable
define internal i32 @H5HF__iblock_unpin(ptr noundef %0) #0 {
  %2 = alloca ptr, align 8
  %3 = alloca i32, align 4
  %4 = alloca i8, align 1
  store ptr %0, ptr %2, align 8, !tbaa !3
  call void @llvm.lifetime.start.p0(i64 4, ptr %3) #7
  store i32 0, ptr %3, align 4, !tbaa !8
  call void @llvm.lifetime.start.p0(i64 1, ptr %4) #7
  store i8 0, ptr %4, align 1, !tbaa !10
  %5 = load i8, ptr @H5HF_init_g, align 1, !tbaa !10, !range !12, !noundef !13
  %6 = trunc i8 %5 to i1
  br i1 %6, label %11, label %7

7:                                                ; preds = %1
  %8 = load i8, ptr @H5_libterm_g, align 1, !tbaa !10, !range !12, !noundef !13
  %9 = trunc i8 %8 to i1
  %10 = xor i1 %9, true
  br label %11

11:                                               ; preds = %7, %1
  %12 = phi i1 [ true, %1 ], [ %10, %7 ]
  %13 = xor i1 %12, true
  %14 = xor i1 %13, true
  %15 = zext i1 %14 to i32
  %16 = sext i32 %15 to i64
  %17 = call i64 @llvm.expect.i64(i64 %16, i64 1)
  %18 = icmp ne i64 %17, 0
  br i1 %18, label %19, label %44

19:                                               ; preds = %11
  %20 = load ptr, ptr %2, align 8, !tbaa !3
  %21 = call i32 @H5AC_unpin_entry(ptr noundef %20)
  %22 = icmp slt i32 %21, 0
  br i1 %22, label %23, label %42

23:                                               ; preds = %19
  br label %24

24:                                               ; preds = %23
  br label %25

25:                                               ; preds = %24
  br label %26

26:                                               ; preds = %25
  %27 = load i64, ptr @H5E_HEAP_g, align 8, !tbaa !28
  %28 = load i64, ptr @H5E_CANTUNPIN_g, align 8, !tbaa !28
  %29 = call i32 (ptr, ptr, i32, i64, i64, ptr, ...) @H5E_printf_stack(ptr noundef @.str.4, ptr noundef @__func__.H5HF__iblock_unpin, i32 noundef 166, i64 noundef %27, i64 noundef %28, ptr noundef @.str.6)
  br label %30

30:                                               ; preds = %26
  br label %31

31:                                               ; preds = %30
  store i8 1, ptr %4, align 1, !tbaa !10
  %32 = load i8, ptr %4, align 1, !tbaa !10, !range !12, !noundef !13
  %33 = trunc i8 %32 to i1
  %34 = zext i1 %33 to i8
  store i8 %34, ptr %4, align 1, !tbaa !10
  br label %35

35:                                               ; preds = %31
  br label %36

36:                                               ; preds = %35
  br label %37

37:                                               ; preds = %36
  store i32 -1, ptr %3, align 4, !tbaa !8
  br label %43

38:                                               ; No predecessors!
  br label %39

39:                                               ; preds = %38
  br label %40

40:                                               ; preds = %39
  br label %41

41:                                               ; preds = %40
  br label %42

42:                                               ; preds = %41, %19
  br label %43

43:                                               ; preds = %42, %37
  br label %44

44:                                               ; preds = %43, %11
  %45 = load i32, ptr %3, align 4, !tbaa !8
  call void @llvm.lifetime.end.p0(i64 1, ptr %4) #7
  call void @llvm.lifetime.end.p0(i64 4, ptr %3) #7
  ret i32 %45
}

; Function Attrs: nounwind uwtable
define i32 @H5HF__iblock_decr(ptr noundef %0) #0 {
  %2 = alloca ptr, align 8
  %3 = alloca i32, align 4
  %4 = alloca i8, align 1
  %5 = alloca ptr, align 8
  %6 = alloca i32, align 4
  store ptr %0, ptr %2, align 8, !tbaa !3
  call void @llvm.lifetime.start.p0(i64 4, ptr %3) #7
  store i32 0, ptr %3, align 4, !tbaa !8
  call void @llvm.lifetime.start.p0(i64 1, ptr %4) #7
  store i8 0, ptr %4, align 1, !tbaa !10
  %7 = load i8, ptr @H5HF_init_g, align 1, !tbaa !10, !range !12, !noundef !13
  %8 = trunc i8 %7 to i1
  br i1 %8, label %13, label %9

9:                                                ; preds = %1
  %10 = load i8, ptr @H5_libterm_g, align 1, !tbaa !10, !range !12, !noundef !13
  %11 = trunc i8 %10 to i1
  %12 = xor i1 %11, true
  br label %13

13:                                               ; preds = %9, %1
  %14 = phi i1 [ true, %1 ], [ %12, %9 ]
  %15 = xor i1 %14, true
  %16 = xor i1 %15, true
  %17 = zext i1 %16 to i32
  %18 = sext i32 %17 to i64
  %19 = call i64 @llvm.expect.i64(i64 %18, i64 1)
  %20 = icmp ne i64 %19, 0
  br i1 %20, label %21, label %144

21:                                               ; preds = %13
  %22 = load ptr, ptr %2, align 8, !tbaa !3
  %23 = getelementptr inbounds nuw %struct.H5HF_indirect_t, ptr %22, i32 0, i32 1
  %24 = load i64, ptr %23, align 8, !tbaa !14
  %25 = add i64 %24, -1
  store i64 %25, ptr %23, align 8, !tbaa !14
  %26 = load ptr, ptr %2, align 8, !tbaa !3
  %27 = getelementptr inbounds nuw %struct.H5HF_indirect_t, ptr %26, i32 0, i32 1
  %28 = load i64, ptr %27, align 8, !tbaa !14
  %29 = icmp eq i64 %28, 0
  br i1 %29, label %30, label %142

30:                                               ; preds = %21
  %31 = load ptr, ptr %2, align 8, !tbaa !3
  %32 = getelementptr inbounds nuw %struct.H5HF_indirect_t, ptr %31, i32 0, i32 3
  %33 = load ptr, ptr %32, align 8, !tbaa !29
  %34 = icmp ne ptr %33, null
  br i1 %34, label %35, label %63

35:                                               ; preds = %30
  call void @llvm.lifetime.start.p0(i64 8, ptr %5) #7
  %36 = load ptr, ptr %2, align 8, !tbaa !3
  %37 = getelementptr inbounds nuw %struct.H5HF_indirect_t, ptr %36, i32 0, i32 3
  %38 = load ptr, ptr %37, align 8, !tbaa !29
  store ptr %38, ptr %5, align 8, !tbaa !3
  call void @llvm.lifetime.start.p0(i64 4, ptr %6) #7
  %39 = load ptr, ptr %2, align 8, !tbaa !3
  %40 = getelementptr inbounds nuw %struct.H5HF_indirect_t, ptr %39, i32 0, i32 5
  %41 = load i32, ptr %40, align 8, !tbaa !30
  %42 = load ptr, ptr %2, align 8, !tbaa !3
  %43 = getelementptr inbounds nuw %struct.H5HF_indirect_t, ptr %42, i32 0, i32 2
  %44 = load ptr, ptr %43, align 8, !tbaa !31
  %45 = getelementptr inbounds nuw %struct.H5HF_hdr_t, ptr %44, i32 0, i32 7
  %46 = getelementptr inbounds nuw %struct.H5HF_dtable_t, ptr %45, i32 0, i32 4
  %47 = load i32, ptr %46, align 8, !tbaa !32
  %48 = load ptr, ptr %2, align 8, !tbaa !3
  %49 = getelementptr inbounds nuw %struct.H5HF_indirect_t, ptr %48, i32 0, i32 2
  %50 = load ptr, ptr %49, align 8, !tbaa !31
  %51 = getelementptr inbounds nuw %struct.H5HF_hdr_t, ptr %50, i32 0, i32 7
  %52 = getelementptr inbounds nuw %struct.H5HF_dtable_t, ptr %51, i32 0, i32 0
  %53 = getelementptr inbounds nuw %struct.H5HF_dtable_cparam_t, ptr %52, i32 0, i32 0
  %54 = load i32, ptr %53, align 8, !tbaa !44
  %55 = mul i32 %47, %54
  %56 = sub i32 %41, %55
  store i32 %56, ptr %6, align 4, !tbaa !8
  %57 = load ptr, ptr %5, align 8, !tbaa !3
  %58 = getelementptr inbounds nuw %struct.H5HF_indirect_t, ptr %57, i32 0, i32 12
  %59 = load ptr, ptr %58, align 8, !tbaa !45
  %60 = load i32, ptr %6, align 4, !tbaa !8
  %61 = zext i32 %60 to i64
  %62 = getelementptr inbounds nuw ptr, ptr %59, i64 %61
  store ptr null, ptr %62, align 8, !tbaa !3
  call void @llvm.lifetime.end.p0(i64 4, ptr %6) #7
  call void @llvm.lifetime.end.p0(i64 8, ptr %5) #7
  br label %88

63:                                               ; preds = %30
  %64 = load ptr, ptr %2, align 8, !tbaa !3
  %65 = getelementptr inbounds nuw %struct.H5HF_indirect_t, ptr %64, i32 0, i32 14
  %66 = load i64, ptr %65, align 8, !tbaa !46
  %67 = icmp eq i64 %66, 0
  br i1 %67, label %68, label %87

68:                                               ; preds = %63
  %69 = load ptr, ptr %2, align 8, !tbaa !3
  %70 = getelementptr inbounds nuw %struct.H5HF_indirect_t, ptr %69, i32 0, i32 2
  %71 = load ptr, ptr %70, align 8, !tbaa !31
  %72 = getelementptr inbounds nuw %struct.H5HF_hdr_t, ptr %71, i32 0, i32 34
  %73 = load i32, ptr %72, align 8, !tbaa !47
  %74 = icmp eq i32 1, %73
  br i1 %74, label %75, label %80

75:                                               ; preds = %68
  %76 = load ptr, ptr %2, align 8, !tbaa !3
  %77 = getelementptr inbounds nuw %struct.H5HF_indirect_t, ptr %76, i32 0, i32 2
  %78 = load ptr, ptr %77, align 8, !tbaa !31
  %79 = getelementptr inbounds nuw %struct.H5HF_hdr_t, ptr %78, i32 0, i32 33
  store ptr null, ptr %79, align 8, !tbaa !48
  br label %80

80:                                               ; preds = %75, %68
  %81 = load ptr, ptr %2, align 8, !tbaa !3
  %82 = getelementptr inbounds nuw %struct.H5HF_indirect_t, ptr %81, i32 0, i32 2
  %83 = load ptr, ptr %82, align 8, !tbaa !31
  %84 = getelementptr inbounds nuw %struct.H5HF_hdr_t, ptr %83, i32 0, i32 34
  %85 = load i32, ptr %84, align 8, !tbaa !47
  %86 = and i32 %85, -2
  store i32 %86, ptr %84, align 8, !tbaa !47
  br label %87

87:                                               ; preds = %80, %63
  br label %88

88:                                               ; preds = %87, %35
  %89 = load ptr, ptr %2, align 8, !tbaa !3
  %90 = getelementptr inbounds nuw %struct.H5HF_indirect_t, ptr %89, i32 0, i32 13
  %91 = load i8, ptr %90, align 8, !tbaa !49, !range !12, !noundef !13
  %92 = trunc i8 %91 to i1
  br i1 %92, label %117, label %93

93:                                               ; preds = %88
  %94 = load ptr, ptr %2, align 8, !tbaa !3
  %95 = call i32 @H5HF__iblock_unpin(ptr noundef %94)
  %96 = icmp slt i32 %95, 0
  br i1 %96, label %97, label %116

97:                                               ; preds = %93
  br label %98

98:                                               ; preds = %97
  br label %99

99:                                               ; preds = %98
  br label %100

100:                                              ; preds = %99
  %101 = load i64, ptr @H5E_HEAP_g, align 8, !tbaa !28
  %102 = load i64, ptr @H5E_CANTUNPIN_g, align 8, !tbaa !28
  %103 = call i32 (ptr, ptr, i32, i64, i64, ptr, ...) @H5E_printf_stack(ptr noundef @.str.4, ptr noundef @__func__.H5HF__iblock_decr, i32 noundef 268, i64 noundef %101, i64 noundef %102, ptr noundef @.str.6)
  br label %104

104:                                              ; preds = %100
  br label %105

105:                                              ; preds = %104
  store i8 1, ptr %4, align 1, !tbaa !10
  %106 = load i8, ptr %4, align 1, !tbaa !10, !range !12, !noundef !13
  %107 = trunc i8 %106 to i1
  %108 = zext i1 %107 to i8
  store i8 %108, ptr %4, align 1, !tbaa !10
  br label %109

109:                                              ; preds = %105
  br label %110

110:                                              ; preds = %109
  br label %111

111:                                              ; preds = %110
  store i32 -1, ptr %3, align 4, !tbaa !8
  br label %143

112:                                              ; No predecessors!
  br label %113

113:                                              ; preds = %112
  br label %114

114:                                              ; preds = %113
  br label %115

115:                                              ; preds = %114
  br label %116

116:                                              ; preds = %115, %93
  br label %141

117:                                              ; preds = %88
  %118 = load ptr, ptr %2, align 8, !tbaa !3
  %119 = call i32 @H5HF__man_iblock_dest(ptr noundef %118)
  %120 = icmp slt i32 %119, 0
  br i1 %120, label %121, label %140

121:                                              ; preds = %117
  br label %122

122:                                              ; preds = %121
  br label %123

123:                                              ; preds = %122
  br label %124

124:                                              ; preds = %123
  %125 = load i64, ptr @H5E_HEAP_g, align 8, !tbaa !28
  %126 = load i64, ptr @H5E_CANTFREE_g, align 8, !tbaa !28
  %127 = call i32 (ptr, ptr, i32, i64, i64, ptr, ...) @H5E_printf_stack(ptr noundef @.str.4, ptr noundef @__func__.H5HF__iblock_decr, i32 noundef 273, i64 noundef %125, i64 noundef %126, ptr noundef @.str.7)
  br label %128

128:                                              ; preds = %124
  br label %129

129:                                              ; preds = %128
  store i8 1, ptr %4, align 1, !tbaa !10
  %130 = load i8, ptr %4, align 1, !tbaa !10, !range !12, !noundef !13
  %131 = trunc i8 %130 to i1
  %132 = zext i1 %131 to i8
  store i8 %132, ptr %4, align 1, !tbaa !10
  br label %133

133:                                              ; preds = %129
  br label %134

134:                                              ; preds = %133
  br label %135

135:                                              ; preds = %134
  store i32 -1, ptr %3, align 4, !tbaa !8
  br label %143

136:                                              ; No predecessors!
  br label %137

137:                                              ; preds = %136
  br label %138

138:                                              ; preds = %137
  br label %139

139:                                              ; preds = %138
  br label %140

140:                                              ; preds = %139, %117
  br label %141

141:                                              ; preds = %140, %116
  br label %142

142:                                              ; preds = %141, %21
  br label %143

143:                                              ; preds = %142, %135, %111
  br label %144

144:                                              ; preds = %143, %13
  %145 = load i32, ptr %3, align 4, !tbaa !8
  call void @llvm.lifetime.end.p0(i64 1, ptr %4) #7
  call void @llvm.lifetime.end.p0(i64 4, ptr %3) #7
  ret i32 %145
}