; Function Attrs: nounwind uwtable
define range(i32 -1, 1) i32 @H5HF__iblock_decr(ptr noundef %0) local_unnamed_addr #0 {
  %2 = load i8, ptr @H5HF_init_g, align 1, !tbaa !3, !range !7, !noundef !8
  %3 = trunc nuw i8 %2 to i1
  %4 = load i8, ptr @H5_libterm_g, align 1, !range !7
  %5 = trunc nuw i8 %4 to i1
  %6 = xor i1 %5, true
  %7 = select i1 %3, i1 true, i1 %6
  br i1 %7, label %8, label %H5HF__iblock_unpin.exit.thread, !prof !9

8:                                                ; preds = %1
  %9 = getelementptr inbounds nuw i8, ptr %0, i64 248
  %10 = load i64, ptr %9, align 8, !tbaa !10
  %11 = add i64 %10, -1
  store i64 %11, ptr %9, align 8, !tbaa !10
  %12 = icmp eq i64 %11, 0
  br i1 %12, label %13, label %H5HF__iblock_unpin.exit.thread

13:                                               ; preds = %8
  %14 = getelementptr inbounds nuw i8, ptr %0, i64 264
  %15 = load ptr, ptr %14, align 8, !tbaa !27
  %.not = icmp eq ptr %15, null
  br i1 %.not, label %31, label %16

16:                                               ; preds = %13
  %17 = getelementptr inbounds nuw i8, ptr %0, i64 280
  %18 = load i32, ptr %17, align 8, !tbaa !28
  %19 = getelementptr inbounds nuw i8, ptr %0, i64 256
  %20 = load ptr, ptr %19, align 8, !tbaa !29
  %21 = getelementptr inbounds nuw i8, ptr %20, i64 264
  %22 = getelementptr inbounds nuw i8, ptr %20, i64 312
  %23 = load i32, ptr %22, align 8, !tbaa !30
  %24 = load i32, ptr %21, align 8, !tbaa !42
  %25 = mul i32 %24, %23
  %26 = sub i32 %18, %25
  %27 = getelementptr inbounds nuw i8, ptr %15, i64 320
  %28 = load ptr, ptr %27, align 8, !tbaa !43
  %29 = zext i32 %26 to i64
  %30 = getelementptr inbounds nuw ptr, ptr %28, i64 %29
  store ptr null, ptr %30, align 8, !tbaa !44
  br label %45

31:                                               ; preds = %13
  %32 = getelementptr inbounds nuw i8, ptr %0, i64 336
  %33 = load i64, ptr %32, align 8, !tbaa !45
  %34 = icmp eq i64 %33, 0
  br i1 %34, label %35, label %45

35:                                               ; preds = %31
  %36 = getelementptr inbounds nuw i8, ptr %0, i64 256
  %37 = load ptr, ptr %36, align 8, !tbaa !29
  %38 = getelementptr inbounds nuw i8, ptr %37, i64 632
  %39 = load i32, ptr %38, align 8, !tbaa !46
  %40 = icmp eq i32 %39, 1
  br i1 %40, label %41, label %43

41:                                               ; preds = %35
  %42 = getelementptr inbounds nuw i8, ptr %37, i64 624
  store ptr null, ptr %42, align 8, !tbaa !47
  br label %43

43:                                               ; preds = %41, %35
  %44 = and i32 %39, -2
  store i32 %44, ptr %38, align 8, !tbaa !46
  br label %45

45:                                               ; preds = %31, %43, %16
  %46 = getelementptr inbounds nuw i8, ptr %0, i64 328
  %47 = load i8, ptr %46, align 8, !tbaa !49, !range !7, !noundef !8
  %48 = trunc nuw i8 %47 to i1
  br i1 %48, label %64, label %49

49:                                               ; preds = %45
  %50 = load i8, ptr @H5_libterm_g, align 1, !range !7
  %51 = trunc nuw i8 %50 to i1
  %52 = xor i1 %51, true
  %53 = select i1 %3, i1 true, i1 %52
  br i1 %53, label %54, label %H5HF__iblock_unpin.exit.thread, !prof !9

54:                                               ; preds = %49
  %55 = tail call i32 @H5AC_unpin_entry(ptr noundef nonnull %0) #6
  %56 = icmp slt i32 %55, 0
  br i1 %56, label %57, label %H5HF__iblock_unpin.exit.thread

57:                                               ; preds = %54
  %58 = load i64, ptr @H5E_HEAP_g, align 8, !tbaa !48
  %59 = load i64, ptr @H5E_CANTUNPIN_g, align 8, !tbaa !48
  %60 = tail call i32 (ptr, ptr, i32, i64, i64, ptr, ...) @H5E_printf_stack(ptr noundef nonnull @.str.4, ptr noundef nonnull @__func__.H5HF__iblock_unpin, i32 noundef 166, i64 noundef %58, i64 noundef %59, ptr noundef nonnull @.str.6) #6
  %61 = load i64, ptr @H5E_HEAP_g, align 8, !tbaa !48
  %62 = load i64, ptr @H5E_CANTUNPIN_g, align 8, !tbaa !48
  %63 = tail call i32 (ptr, ptr, i32, i64, i64, ptr, ...) @H5E_printf_stack(ptr noundef nonnull @.str.4, ptr noundef nonnull @__func__.H5HF__iblock_decr, i32 noundef 268, i64 noundef %61, i64 noundef %62, ptr noundef nonnull @.str.6) #6
  br label %H5HF__iblock_unpin.exit.thread

64:                                               ; preds = %45
  %65 = tail call i32 @H5HF__man_iblock_dest(ptr noundef nonnull %0)
  %66 = icmp slt i32 %65, 0
  br i1 %66, label %67, label %H5HF__iblock_unpin.exit.thread

67:                                               ; preds = %64
  %68 = load i64, ptr @H5E_HEAP_g, align 8, !tbaa !48
  %69 = load i64, ptr @H5E_CANTFREE_g, align 8, !tbaa !48
  %70 = tail call i32 (ptr, ptr, i32, i64, i64, ptr, ...) @H5E_printf_stack(ptr noundef nonnull @.str.4, ptr noundef nonnull @__func__.H5HF__iblock_decr, i32 noundef 273, i64 noundef %68, i64 noundef %69, ptr noundef nonnull @.str.7) #6
  br label %H5HF__iblock_unpin.exit.thread

H5HF__iblock_unpin.exit.thread:                   ; preds = %49, %54, %57, %67, %64, %8, %1
  %.0 = phi i32 [ -1, %67 ], [ 0, %64 ], [ -1, %57 ], [ 0, %8 ], [ 0, %1 ], [ 0, %54 ], [ 0, %49 ]
  ret i32 %.0
}